target datalayout = "e-m:e-p270:32:32-p271:32:32-p272:64:64-i64:64-i128:128-f80:128-n8:16:32:64-S128"
target triple = "x86_64-unknown-linux-gnu"

%struct.btMultibodyLink = type { float, %class.btVector3, i32, %class.btQuaternion, %class.btVector3, %class.btVector3, %struct.btSpatialMotionVector, %struct.btSpatialMotionVector, [6 x %struct.btSpatialMotionVector], i32, i32, %class.btQuaternion, %class.btVector3, %class.btQuaternion, %class.btVector3, %class.btVector3, %class.btVector3, %class.btVector3, %class.btVector3, [7 x float], [7 x float], [6 x float], ptr, i32, i32, i32, i32, ptr, %class.btTransform, ptr, ptr, ptr, float, float, float, float, float, float }
%struct.btSpatialMotionVector = type { %class.btVector3, %class.btVector3 }
%class.btQuaternion = type { %class.btQuadWord }
%class.btQuadWord = type { [4 x float] }
%class.btVector3 = type { [4 x float] }
%class.btTransform = type { %class.btMatrix3x3, %class.btVector3 }
%class.btMatrix3x3 = type { [3 x %class.btVector3] }
%class.btMultiBodySphericalJointLimit = type { %class.btMultiBodyConstraint, %class.btVector3, %class.btQuaternion, i8, %class.btVector3, %class.btVector3, float, float, %class.btVector3, %class.btVector3, %class.btVector3, float, float, float }
%class.btMultiBodyConstraint = type { ptr, ptr, ptr, i32, i32, i32, i32, i32, i32, i32, i8, i32, float, %class.btAlignedObjectArray }
%class.btAlignedObjectArray = type <{ %class.btAlignedAllocator, [3 x i8], i32, i32, [4 x i8], ptr, i8, [7 x i8] }>
%class.btAlignedAllocator = type { i8 }
%class.btMultiBody = type { ptr, ptr, ptr, %class.btVector3, %class.btVector3, %class.btQuaternion, %class.btQuaternion, float, %class.btVector3, %class.btVector3, %class.btVector3, %class.btVector3, %class.btVector3, [4 x i8], %class.btAlignedObjectArray.0, %class.btAlignedObjectArray, %class.btAlignedObjectArray, %class.btAlignedObjectArray, %class.btAlignedObjectArray.4, %class.btAlignedObjectArray.8, %class.btMatrix3x3, %class.btMatrix3x3, %class.btMatrix3x3, %class.btMatrix3x3, i8, i8, i8, i8, i8, float, float, float, ptr, i32, i32, i32, float, float, i8, float, float, i8, i8, i32, i32, i8, i8, i8, i8 }
%class.btAlignedObjectArray.0 = type <{ %class.btAlignedAllocator.1, [3 x i8], i32, i32, [4 x i8], ptr, i8, [7 x i8] }>
%class.btAlignedAllocator.1 = type { i8 }
%class.btAlignedObjectArray.4 = type <{ %class.btAlignedAllocator.5, [3 x i8], i32, i32, [4 x i8], ptr, i8, [7 x i8] }>
%class.btAlignedAllocator.5 = type { i8 }
%class.btAlignedObjectArray.8 = type <{ %class.btAlignedAllocator.9, [3 x i8], i32, i32, [4 x i8], ptr, i8, [7 x i8] }>
%class.btAlignedAllocator.9 = type { i8 }

; Function Attrs: mustprogress nounwind uwtable
define linkonce_odr dso_local void @_ZN10btQuadWordC2ERKfS1_S1_S1_(ptr noundef nonnull align 4 dereferenceable(16) %this, ptr noundef nonnull align 4 dereferenceable(4) %_x, ptr noundef nonnull align 4 dereferenceable(4) %_y, ptr noundef nonnull align 4 dereferenceable(4) %_z, ptr noundef nonnull align 4 dereferenceable(4) %_w) unnamed_addr #1 comdat align 2 {
entry:
  %this.addr = alloca ptr, align 8
  %_x.addr = alloca ptr, align 8
  %_y.addr = alloca ptr, align 8
  %_z.addr = alloca ptr, align 8
  %_w.addr = alloca ptr, align 8
  store ptr %this, ptr %this.addr, align 8
  store ptr %_x, ptr %_x.addr, align 8
  store ptr %_y, ptr %_y.addr, align 8
  store ptr %_z, ptr %_z.addr, align 8
  store ptr %_w, ptr %_w.addr, align 8
  %this1 = load ptr, ptr %this.addr, align 8
  %0 = load ptr, ptr %_x.addr, align 8
  %1 = load float, ptr %0, align 4
  %m_floats = getelementptr inbounds %class.btQuadWord, ptr %this1, i32 0, i32 0
  %arrayidx = getelementptr inbounds [4 x float], ptr %m_floats, i64 0, i64 0
  store float %1, ptr %arrayidx, align 4
  %2 = load ptr, ptr %_y.addr, align 8
  %3 = load float, ptr %2, align 4
  %m_floats2 = getelementptr inbounds %class.btQuadWord, ptr %this1, i32 0, i32 0
  %arrayidx3 = getelementptr inbounds [4 x float], ptr %m_floats2, i64 0, i64 1
  store float %3, ptr %arrayidx3, align 4
  %4 = load ptr, ptr %_z.addr, align 8
  %5 = load float, ptr %4, align 4
  %m_floats4 = getelementptr inbounds %class.btQuadWord, ptr %this1, i32 0, i32 0
  %arrayidx5 = getelementptr inbounds [4 x float], ptr %m_floats4, i64 0, i64 2
  store float %5, ptr %arrayidx5, align 4
  %6 = load ptr, ptr %_w.addr, align 8
  %7 = load float, ptr %6, align 4
  %m_floats6 = getelementptr inbounds %class.btQuadWord, ptr %this1, i32 0, i32 0
  %arrayidx7 = getelementptr inbounds [4 x float], ptr %m_floats6, i64 0, i64 3
  store float %7, ptr %arrayidx7, align 4
  ret void
}

; Function Attrs: mustprogress nounwind uwtable
define linkonce_odr dso_local noundef nonnull align 8 dereferenceable(688) ptr @_ZN20btAlignedObjectArrayI15btMultibodyLinkEixEi(ptr noundef nonnull align 8 dereferenceable(25) %this, i32 noundef %n) #1 comdat align 2 {
entry:
  %this.addr = alloca ptr, align 8
  %n.addr = alloca i32, align 4
  store ptr %this, ptr %this.addr, align 8
  store i32 %n, ptr %n.addr, align 4
  %this1 = load ptr, ptr %this.addr, align 8
  %m_data = getelementptr inbounds %class.btAlignedObjectArray.0, ptr %this1, i32 0, i32 5
  %0 = load ptr, ptr %m_data, align 8
  %1 = load i32, ptr %n.addr, align 4
  %idxprom = sext i32 %1 to i64
  %arrayidx = getelementptr inbounds %struct.btMultibodyLink, ptr %0, i64 %idxprom
  ret ptr %arrayidx
}

; Function Attrs: mustprogress uwtable
define linkonce_odr dso_local void @_ZN12btQuaternionC2ERKfS1_S1_S1_(ptr noundef nonnull align 4 dereferenceable(16) %this, ptr noundef nonnull align 4 dereferenceable(4) %_x, ptr noundef nonnull align 4 dereferenceable(4) %_y, ptr noundef nonnull align 4 dereferenceable(4) %_z, ptr noundef nonnull align 4 dereferenceable(4) %_w) unnamed_addr #2 comdat align 2 {
entry:
  %this.addr = alloca ptr, align 8
  %_x.addr = alloca ptr, align 8
  %_y.addr = alloca ptr, align 8
  %_z.addr = alloca ptr, align 8
  %_w.addr = alloca ptr, align 8
  store ptr %this, ptr %this.addr, align 8
  store ptr %_x, ptr %_x.addr, align 8
  store ptr %_y, ptr %_y.addr, align 8
  store ptr %_z, ptr %_z.addr, align 8
  store ptr %_w, ptr %_w.addr, align 8
  %this1 = load ptr, ptr %this.addr, align 8
  %0 = load ptr, ptr %_x.addr, align 8
  %1 = load ptr, ptr %_y.addr, align 8
  %2 = load ptr, ptr %_z.addr, align 8
  %3 = load ptr, ptr %_w.addr, align 8
  call void @_ZN10btQuadWordC2ERKfS1_S1_S1_(ptr noundef nonnull align 4 dereferenceable(16) %this1, ptr noundef nonnull align 4 dereferenceable(4) %0, ptr noundef nonnull align 4 dereferenceable(4) %1, ptr noundef nonnull align 4 dereferenceable(4) %2, ptr noundef nonnull align 4 dereferenceable(4) %3)
  ret void
}

; Function Attrs: mustprogress nounwind uwtable
define linkonce_odr dso_local void @_ZN9btVector3C2ERKfS1_S1_(ptr noundef nonnull align 4 dereferenceable(16) %this, ptr noundef nonnull align 4 dereferenceable(4) %_x, ptr noundef nonnull align 4 dereferenceable(4) %_y, ptr noundef nonnull align 4 dereferenceable(4) %_z) unnamed_addr #1 comdat align 2 {
entry:
  %this.addr = alloca ptr, align 8
  %_x.addr = alloca ptr, align 8
  %_y.addr = alloca ptr, align 8
  %_z.addr = alloca ptr, align 8
  store ptr %this, ptr %this.addr, align 8
  store ptr %_x, ptr %_x.addr, align 8
  store ptr %_y, ptr %_y.addr, align 8
  store ptr %_z, ptr %_z.addr, align 8
  %this1 = load ptr, ptr %this.addr, align 8
  %0 = load ptr, ptr %_x.addr, align 8
  %1 = load float, ptr %0, align 4
  %m_floats = getelementptr inbounds %class.btVector3, ptr %this1, i32 0, i32 0
  %arrayidx = getelementptr inbounds [4 x float], ptr %m_floats, i64 0, i64 0
  store float %1, ptr %arrayidx, align 4
  %2 = load ptr, ptr %_y.addr, align 8
  %3 = load float, ptr %2, align 4
  %m_floats2 = getelementptr inbounds %class.btVector3, ptr %this1, i32 0, i32 0
  %arrayidx3 = getelementptr inbounds [4 x float], ptr %m_floats2, i64 0, i64 1
  store float %3, ptr %arrayidx3, align 4
  %4 = load ptr, ptr %_z.addr, align 8
  %5 = load float, ptr %4, align 4
  %m_floats4 = getelementptr inbounds %class.btVector3, ptr %this1, i32 0, i32 0
  %arrayidx5 = getelementptr inbounds [4 x float], ptr %m_floats4, i64 0, i64 2
  store float %5, ptr %arrayidx5, align 4
  %m_floats6 = getelementptr inbounds %class.btVector3, ptr %this1, i32 0, i32 0
  %arrayidx7 = getelementptr inbounds [4 x float], ptr %m_floats6, i64 0, i64 3
  store float 0.000000e+00, ptr %arrayidx7, align 4
  ret void
}

; Function Attrs: mustprogress uwtable
define linkonce_odr dso_local noundef nonnull align 8 dereferenceable(688) ptr @_ZN11btMultiBody7getLinkEi(ptr noundef nonnull align 8 dereferenceable(640) %this, i32 noundef %index) #2 comdat align 2 {
entry:
  %this.addr = alloca ptr, align 8
  %index.addr = alloca i32, align 4
  store ptr %this, ptr %this.addr, align 8
  store i32 %index, ptr %index.addr, align 4
  %this1 = load ptr, ptr %this.addr, align 8
  %m_links = getelementptr inbounds %class.btMultiBody, ptr %this1, i32 0, i32 14
  %0 = load i32, ptr %index.addr, align 4
  %call = call noundef nonnull align 8 dereferenceable(688) ptr @_ZN20btAlignedObjectArrayI15btMultibodyLinkEixEi(ptr noundef nonnull align 8 dereferenceable(25) %m_links, i32 noundef %0)
  ret ptr %call
}

; Function Attrs: mustprogress uwtable
define dso_local void @_ZN30btMultiBodySphericalJointLimitC2EP11btMultiBodyiffff(ptr noundef nonnull align 8 dereferenceable(232) %this, ptr noundef %body, i32 noundef %link, float noundef %swingxRange, float noundef %swingyRange, float noundef %twistRange, float noundef %maxAppliedImpulse) unnamed_addr #2 align 2 personality ptr @__gxx_personality_v0 {
entry:
  %this.addr = alloca ptr, align 8
  %body.addr = alloca ptr, align 8
  %link.addr = alloca i32, align 4
  %swingxRange.addr = alloca float, align 4
  %swingyRange.addr = alloca float, align 4
  %twistRange.addr = alloca float, align 4
  %maxAppliedImpulse.addr = alloca float, align 4
  %ref.tmp = alloca float, align 4
  %ref.tmp2 = alloca float, align 4
  %ref.tmp3 = alloca float, align 4
  %exn.slot = alloca ptr, align 8
  %ehselector.slot = alloca i32, align 4
  %ref.tmp4 = alloca float, align 4
  %ref.tmp5 = alloca float, align 4
  %ref.tmp6 = alloca float, align 4
  %ref.tmp7 = alloca float, align 4
  %ref.tmp9 = alloca float, align 4
  %ref.tmp10 = alloca float, align 4
  %ref.tmp11 = alloca float, align 4
  %ref.tmp13 = alloca float, align 4
  %ref.tmp14 = alloca float, align 4
  %ref.tmp15 = alloca float, align 4
  store ptr %this, ptr %this.addr, align 8
  store ptr %body, ptr %body.addr, align 8
  store i32 %link, ptr %link.addr, align 4
  store float %swingxRange, ptr %swingxRange.addr, align 4
  store float %swingyRange, ptr %swingyRange.addr, align 4
  store float %twistRange, ptr %twistRange.addr, align 4
  store float %maxAppliedImpulse, ptr %maxAppliedImpulse.addr, align 4
  %this1 = load ptr, ptr %this.addr, align 8
  %0 = load ptr, ptr %body.addr, align 8
  %1 = load ptr, ptr %body.addr, align 8
  %2 = load i32, ptr %link.addr, align 4
  %3 = load ptr, ptr %body.addr, align 8
  %4 = load i32, ptr %link.addr, align 4
  %call = call noundef nonnull align 8 dereferenceable(688) ptr @_ZN11btMultiBody7getLinkEi(ptr noundef nonnull align 8 dereferenceable(640) %3, i32 noundef %4)
  %m_parent = getelementptr inbounds %struct.btMultibodyLink, ptr %call, i32 0, i32 2
  %5 = load i32, ptr %m_parent, align 4
  call void @_ZN21btMultiBodyConstraintC2EP11btMultiBodyS1_iiibi(ptr noundef nonnull align 8 dereferenceable(96) %this1, ptr noundef %0, ptr noundef %1, i32 noundef %2, i32 noundef %5, i32 noundef 3, i1 noundef zeroext true, i32 noundef 10)
  store ptr getelementptr inbounds ({ [21 x ptr] }, ptr @_ZTV30btMultiBodySphericalJointLimit, i32 0, i32 0, i32 2), ptr %this1, align 8
  %m_desiredVelocity = getelementptr inbounds %class.btMultiBodySphericalJointLimit, ptr %this1, i32 0, i32 1
  store float 0.000000e+00, ptr %ref.tmp, align 4
  store float 0.000000e+00, ptr %ref.tmp2, align 4
  store float 0.000000e+00, ptr %ref.tmp3, align 4
  invoke void @_ZN9btVector3C2ERKfS1_S1_(ptr noundef nonnull align 4 dereferenceable(16) %m_desiredVelocity, ptr noundef nonnull align 4 dereferenceable(4) %ref.tmp, ptr noundef nonnull align 4 dereferenceable(4) %ref.tmp2, ptr noundef nonnull align 4 dereferenceable(4) %ref.tmp3)
          to label %invoke.cont unwind label %lpad

invoke.cont:                                      ; preds = %entry
  %m_desiredPosition = getelementptr inbounds %class.btMultiBodySphericalJointLimit, ptr %this1, i32 0, i32 2
  store float 0.000000e+00, ptr %ref.tmp4, align 4
  store float 0.000000e+00, ptr %ref.tmp5, align 4
  store float 0.000000e+00, ptr %ref.tmp6, align 4
  store float 1.000000e+00, ptr %ref.tmp7, align 4
  invoke void @_ZN12btQuaternionC2ERKfS1_S1_S1_(ptr noundef nonnull align 4 dereferenceable(16) %m_desiredPosition, ptr noundef nonnull align 4 dereferenceable(4) %ref.tmp4, ptr noundef nonnull align 4 dereferenceable(4) %ref.tmp5, ptr noundef nonnull align 4 dereferenceable(4) %ref.tmp6, ptr noundef nonnull align 4 dereferenceable(4) %ref.tmp7)
          to label %invoke.cont8 unwind label %lpad

invoke.cont8:                                     ; preds = %invoke.cont
  %m_use_multi_dof_params = getelementptr inbounds %class.btMultiBodySphericalJointLimit, ptr %this1, i32 0, i32 3
  store i8 0, ptr %m_use_multi_dof_params, align 8
  %m_kd = getelementptr inbounds %class.btMultiBodySphericalJointLimit, ptr %this1, i32 0, i32 4
  store float 1.000000e+00, ptr %ref.tmp9, align 4
  store float 1.000000e+00, ptr %ref.tmp10, align 4
  store float 1.000000e+00, ptr %ref.tmp11, align 4
  invoke void @_ZN9btVector3C2ERKfS1_S1_(ptr noundef nonnull align 4 dereferenceable(16) %m_kd, ptr noundef nonnull align 4 dereferenceable(4) %ref.tmp9, ptr noundef nonnull align 4 dereferenceable(4) %ref.tmp10, ptr noundef nonnull align 4 dereferenceable(4) %ref.tmp11)
          to label %invoke.cont12 unwind label %lpad

invoke.cont12:                                    ; preds = %invoke.cont8
  %m_kp = getelementptr inbounds %class.btMultiBodySphericalJointLimit, ptr %this1, i32 0, i32 5
  store float 0x3FC99999A0000000, ptr %ref.tmp13, align 4
  store float 0x3FC99999A0000000, ptr %ref.tmp14, align 4
  store float 0x3FC99999A0000000, ptr %ref.tmp15, align 4
  invoke void @_ZN9btVector3C2ERKfS1_S1_(ptr noundef nonnull align 4 dereferenceable(16) %m_kp, ptr noundef nonnull align 4 dereferenceable(4) %ref.tmp13, ptr noundef nonnull align 4 dereferenceable(4) %ref.tmp14, ptr noundef nonnull align 4 dereferenceable(4) %ref.tmp15)
          to label %invoke.cont16 unwind label %lpad

invoke.cont16:                                    ; preds = %invoke.cont12
  %m_erp = getelementptr inbounds %class.btMultiBodySphericalJointLimit, ptr %this1, i32 0, i32 6
  store float 1.000000e+00, ptr %m_erp, align 4
  %m_rhsClamp = getelementptr inbounds %class.btMultiBodySphericalJointLimit, ptr %this1, i32 0, i32 7
  store float 0x47EFFFFFE0000000, ptr %m_rhsClamp, align 8
  %m_maxAppliedImpulseMultiDof = getelementptr inbounds %class.btMultiBodySphericalJointLimit, ptr %this1, i32 0, i32 8
  invoke void @_ZN9btVector3C2ERKfS1_S1_(ptr noundef nonnull align 4 dereferenceable(16) %m_maxAppliedImpulseMultiDof, ptr noundef nonnull align 4 dereferenceable(4) %maxAppliedImpulse.addr, ptr noundef nonnull align 4 dereferenceable(4) %maxAppliedImpulse.addr, ptr noundef nonnull align 4 dereferenceable(4) %maxAppliedImpulse.addr)
          to label %invoke.cont17 unwind label %lpad

invoke.cont17:                                    ; preds = %invoke.cont16
  %m_pivotA = getelementptr inbounds %class.btMultiBodySphericalJointLimit, ptr %this1, i32 0, i32 9
  %m_bodyA = getelementptr inbounds %class.btMultiBodyConstraint, ptr %this1, i32 0, i32 1
  %6 = load ptr, ptr %m_bodyA, align 8
  %7 = load i32, ptr %link.addr, align 4
  %call19 = invoke noundef nonnull align 8 dereferenceable(688) ptr @_ZN11btMultiBody7getLinkEi(ptr noundef nonnull align 8 dereferenceable(640) %6, i32 noundef %7)
          to label %invoke.cont18 unwind label %lpad

invoke.cont18:                                    ; preds = %invoke.cont17
  %m_eVector = getelementptr inbounds %struct.btMultibodyLink, ptr %call19, i32 0, i32 5
  call void @llvm.memcpy.p0.p0.i64(ptr align 4 %m_pivotA, ptr align 8 %m_eVector, i64 16, i1 false)
  %m_pivotB = getelementptr inbounds %class.btMultiBodySphericalJointLimit, ptr %this1, i32 0, i32 10
  %m_bodyB = getelementptr inbounds %class.btMultiBodyConstraint, ptr %this1, i32 0, i32 2
  %8 = load ptr, ptr %m_bodyB, align 8
  %9 = load i32, ptr %link.addr, align 4
  %call21 = invoke noundef nonnull align 8 dereferenceable(688) ptr @_ZN11btMultiBody7getLinkEi(ptr noundef nonnull align 8 dereferenceable(640) %8, i32 noundef %9)
          to label %invoke.cont20 unwind label %lpad

invoke.cont20:                                    ; preds = %invoke.cont18
  %m_eVector22 = getelementptr inbounds %struct.btMultibodyLink, ptr %call21, i32 0, i32 5
  call void @llvm.memcpy.p0.p0.i64(ptr align 4 %m_pivotB, ptr align 8 %m_eVector22, i64 16, i1 false)
  %m_swingxRange = getelementptr inbounds %class.btMultiBodySphericalJointLimit, ptr %this1, i32 0, i32 11
  %10 = load float, ptr %swingxRange.addr, align 4
  store float %10, ptr %m_swingxRange, align 4
  %m_swingyRange = getelementptr inbounds %class.btMultiBodySphericalJointLimit, ptr %this1, i32 0, i32 12
  %11 = load float, ptr %swingyRange.addr, align 4
  store float %11, ptr %m_swingyRange, align 8
  %m_twistRange = getelementptr inbounds %class.btMultiBodySphericalJointLimit, ptr %this1, i32 0, i32 13
  %12 = load float, ptr %twistRange.addr, align 4
  store float %12, ptr %m_twistRange, align 4
  %13 = load float, ptr %maxAppliedImpulse.addr, align 4
  %m_maxAppliedImpulse = getelementptr inbounds %class.btMultiBodyConstraint, ptr %this1, i32 0, i32 12
  store float %13, ptr %m_maxAppliedImpulse, align 4
  ret void

lpad:                                             ; preds = %invoke.cont18, %invoke.cont17, %invoke.cont16, %invoke.cont12, %invoke.cont8, %invoke.cont, %entry
  %14 = landingpad { ptr, i32 }
          cleanup
  %15 = extractvalue { ptr, i32 } %14, 0
  store ptr %15, ptr %exn.slot, align 8
  %16 = extractvalue { ptr, i32 } %14, 1
  store i32 %16, ptr %ehselector.slot, align 4
  call void @_ZN21btMultiBodyConstraintD2Ev(ptr noundef nonnull align 8 dereferenceable(96) %this1) #11
  br label %eh.resume

eh.resume:                                        ; preds = %lpad
  %exn = load ptr, ptr %exn.slot, align 8
  %sel = load i32, ptr %ehselector.slot, align 4
  %lpad.val = insertvalue { ptr, i32 } poison, ptr %exn, 0
  %lpad.val23 = insertvalue { ptr, i32 } %lpad.val, i32 %sel, 1
  resume { ptr, i32 } %lpad.val23
}